target datalayout = "e-m:e-p270:32:32-p271:32:32-p272:64:64-i64:64-i128:128-f80:128-n8:16:32:64-S128"
target triple = "x86_64-pc-linux-gnu"

@.str = private unnamed_addr constant [13 x i8] c"\0A%.2d:      \00", align 1
@.str.1 = private unnamed_addr constant [8 x i8] c" 0x%.2x\00", align 1
@.str.2 = private unnamed_addr constant [2 x i8] c"\0A\00", align 1
@.str.3 = private unnamed_addr constant [3 x i8] c"%s\00", align 1

; Function Attrs: nounwind uwtable
define hidden void @HIDAPI_DumpPacket(ptr noundef %0, ptr noundef %1, i32 noundef %2) #0 {
  %4 = alloca ptr, align 8
  %5 = alloca ptr, align 8
  %6 = alloca i32, align 4
  %7 = alloca i32, align 4
  %8 = alloca ptr, align 8
  %9 = alloca i64, align 8
  %10 = alloca i32, align 4
  %11 = alloca i32, align 4
  %12 = alloca i64, align 8
  store ptr %0, ptr %4, align 8
  store ptr %1, ptr %5, align 8
  store i32 %2, ptr %6, align 4
  call void @llvm.lifetime.start.p0(i64 4, ptr %7) #7
  call void @llvm.lifetime.start.p0(i64 8, ptr %8) #7
  call void @llvm.lifetime.start.p0(i64 8, ptr %9) #7
  %13 = load ptr, ptr %4, align 8
  %14 = call i64 @SDL_strlen_REAL(ptr noundef %13)
  %15 = load i32, ptr %6, align 4
  %16 = sdiv i32 %15, 8
  %17 = mul nsw i32 11, %16
  %18 = sext i32 %17 to i64
  %19 = add i64 %14, %18
  %20 = load i32, ptr %6, align 4
  %21 = mul nsw i32 5, %20
  %22 = mul nsw i32 %21, 2
  %23 = sext i32 %22 to i64
  %24 = add i64 %19, %23
  %25 = add i64 %24, 1
  %26 = add i64 %25, 1
  store i64 %26, ptr %9, align 8
  call void @llvm.lifetime.start.p0(i64 4, ptr %10) #7
  store i32 0, ptr %10, align 4
  call void @llvm.lifetime.start.p0(i64 4, ptr %11) #7
  %27 = load i32, ptr %6, align 4
  store i32 %27, ptr %11, align 4
  call void @llvm.lifetime.start.p0(i64 8, ptr %12) #7
  %28 = load i64, ptr %9, align 8
  %29 = call noalias ptr @SDL_malloc_REAL(i64 noundef %28)
  store ptr %29, ptr %8, align 8
  %30 = load ptr, ptr %8, align 8
  %31 = load i64, ptr %9, align 8
  %32 = load ptr, ptr %4, align 8
  %33 = load i32, ptr %6, align 4
  %34 = call i32 (ptr, i64, ptr, ...) @SDL_snprintf_REAL(ptr noundef %30, i64 noundef %31, ptr noundef %32, i32 noundef %33)
  %35 = sext i32 %34 to i64
  store i64 %35, ptr %12, align 8
  %36 = load i32, ptr %10, align 4
  store i32 %36, ptr %7, align 4
  br label %37

37:                                               ; preds = %76, %3
  %38 = load i32, ptr %7, align 4
  %39 = load i32, ptr %10, align 4
  %40 = load i32, ptr %11, align 4
  %41 = add nsw i32 %39, %40
  %42 = icmp slt i32 %38, %41
  br i1 %42, label %43, label %79

43:                                               ; preds = %37
  %44 = load i32, ptr %7, align 4
  %45 = srem i32 %44, 8
  %46 = icmp eq i32 %45, 0
  br i1 %46, label %47, label %59

47:                                               ; preds = %43
  %48 = load ptr, ptr %8, align 8
  %49 = load i64, ptr %12, align 8
  %50 = getelementptr inbounds nuw i8, ptr %48, i64 %49
  %51 = load i64, ptr %9, align 8
  %52 = load i64, ptr %12, align 8
  %53 = sub i64 %51, %52
  %54 = load i32, ptr %7, align 4
  %55 = call i32 (ptr, i64, ptr, ...) @SDL_snprintf_REAL(ptr noundef %50, i64 noundef %53, ptr noundef @.str, i32 noundef %54)
  %56 = sext i32 %55 to i64
  %57 = load i64, ptr %12, align 8
  %58 = add i64 %57, %56
  store i64 %58, ptr %12, align 8
  br label %59

59:                                               ; preds = %47, %43
  %60 = load ptr, ptr %8, align 8
  %61 = load i64, ptr %12, align 8
  %62 = getelementptr inbounds nuw i8, ptr %60, i64 %61
  %63 = load i64, ptr %9, align 8
  %64 = load i64, ptr %12, align 8
  %65 = sub i64 %63, %64
  %66 = load ptr, ptr %5, align 8
  %67 = load i32, ptr %7, align 4
  %68 = sext i32 %67 to i64
  %69 = getelementptr inbounds i8, ptr %66, i64 %68
  %70 = load i8, ptr %69, align 1
  %71 = zext i8 %70 to i32
  %72 = call i32 (ptr, i64, ptr, ...) @SDL_snprintf_REAL(ptr noundef %62, i64 noundef %65, ptr noundef @.str.1, i32 noundef %71)
  %73 = sext i32 %72 to i64
  %74 = load i64, ptr %12, align 8
  %75 = add i64 %74, %73
  store i64 %75, ptr %12, align 8
  br label %76

76:                                               ; preds = %59
  %77 = load i32, ptr %7, align 4
  %78 = add nsw i32 %77, 1
  store i32 %78, ptr %7, align 4
  br label %37, !llvm.loop !3

79:                                               ; preds = %37
  %80 = load ptr, ptr %8, align 8
  %81 = load i64, ptr %9, align 8
  %82 = call i64 @SDL_strlcat_REAL(ptr noundef %80, ptr noundef @.str.2, i64 noundef %81)
  %83 = load ptr, ptr %8, align 8
  call void (ptr, ...) @SDL_Log_REAL(ptr noundef @.str.3, ptr noundef %83)
  %84 = load ptr, ptr %8, align 8
  call void @SDL_free_REAL(ptr noundef %84)
  call void @llvm.lifetime.end.p0(i64 8, ptr %12) #7
  call void @llvm.lifetime.end.p0(i64 4, ptr %11) #7
  call void @llvm.lifetime.end.p0(i64 4, ptr %10) #7
  call void @llvm.lifetime.end.p0(i64 8, ptr %9) #7
  call void @llvm.lifetime.end.p0(i64 8, ptr %8) #7
  call void @llvm.lifetime.end.p0(i64 4, ptr %7) #7
  ret void
}