; Function Attrs: nounwind uwtable
define hidden void @HIDAPI_DumpPacket(ptr noundef %0, ptr noundef readonly captures(none) %1, i32 noundef %2) local_unnamed_addr #0 {
  %4 = tail call i64 @SDL_strlen_REAL(ptr noundef %0) #9
  %5 = sdiv i32 %2, 8
  %6 = mul nsw i32 %5, 11
  %7 = sext i32 %6 to i64
  %8 = mul nsw i32 %2, 10
  %9 = sext i32 %8 to i64
  %10 = add nsw i64 %9, 2
  %11 = add nsw i64 %10, %7
  %12 = add i64 %11, %4
  %13 = tail call noalias ptr @SDL_malloc_REAL(i64 noundef %12) #9
  %14 = tail call i32 (ptr, i64, ptr, ...) @SDL_snprintf_REAL(ptr noundef %13, i64 noundef %12, ptr noundef %0, i32 noundef %2) #9
  %15 = icmp sgt i32 %2, 0
  br i1 %15, label %.lr.ph.preheader, label %._crit_edge

.lr.ph.preheader:                                 ; preds = %3
  %16 = sext i32 %14 to i64
  %wide.trip.count = zext nneg i32 %2 to i64
  br label %.lr.ph

.lr.ph:                                           ; preds = %.lr.ph.preheader, %26
  %indvars.iv = phi i64 [ 0, %.lr.ph.preheader ], [ %indvars.iv.next, %26 ]
  %.033 = phi i64 [ %16, %.lr.ph.preheader ], [ %34, %26 ]
  %17 = trunc nuw nsw i64 %indvars.iv to i32
  %18 = and i32 %17, 7
  %19 = icmp eq i32 %18, 0
  br i1 %19, label %20, label %26

20:                                               ; preds = %.lr.ph
  %21 = getelementptr inbounds nuw i8, ptr %13, i64 %.033
  %22 = sub i64 %12, %.033
  %23 = tail call i32 (ptr, i64, ptr, ...) @SDL_snprintf_REAL(ptr noundef %21, i64 noundef %22, ptr noundef nonnull @.str, i32 noundef %17) #9
  %24 = sext i32 %23 to i64
  %25 = add i64 %.033, %24
  br label %26

26:                                               ; preds = %20, %.lr.ph
  %.1 = phi i64 [ %25, %20 ], [ %.033, %.lr.ph ]
  %27 = getelementptr inbounds nuw i8, ptr %13, i64 %.1
  %28 = sub i64 %12, %.1
  %29 = getelementptr inbounds nuw i8, ptr %1, i64 %indvars.iv
  %30 = load i8, ptr %29, align 1
  %31 = zext i8 %30 to i32
  %32 = tail call i32 (ptr, i64, ptr, ...) @SDL_snprintf_REAL(ptr noundef %27, i64 noundef %28, ptr noundef nonnull @.str.1, i32 noundef %31) #9
  %33 = sext i32 %32 to i64
  %34 = add i64 %.1, %33
  %indvars.iv.next = add nuw nsw i64 %indvars.iv, 1
  %exitcond.not = icmp eq i64 %indvars.iv.next, %wide.trip.count
  br i1 %exitcond.not, label %._crit_edge, label %.lr.ph, !llvm.loop !3

._crit_edge:                                      ; preds = %26, %3
  %35 = tail call i64 @SDL_strlcat_REAL(ptr noundef %13, ptr noundef nonnull @.str.2, i64 noundef %12) #9
  tail call void (ptr, ...) @SDL_Log_REAL(ptr noundef nonnull @.str.3, ptr noundef %13) #9
  tail call void @SDL_free_REAL(ptr noundef %13) #9
  ret void
}